; Function Attrs: mustprogress nofree norecurse nosync nounwind memory(write, argmem: readwrite, inaccessiblemem: none) uwtable
define void @_ZN6icu_776number4impl15DecimalQuantity11popFromLeftEi(ptr noundef nonnull align 8 captures(none) dereferenceable(66) %0, i32 noundef %1) local_unnamed_addr #17 align 2 {
  %3 = getelementptr inbounds nuw i8, ptr %0, i64 64
  %4 = load i8, ptr %3, align 8, !tbaa !22, !range !24, !noundef !25
  %5 = trunc nuw i8 %4 to i1
  %6 = getelementptr inbounds nuw i8, ptr %0, i64 16
  br i1 %5, label %7, label %17

7:                                                ; preds = %2
  %.not.not6 = icmp sgt i32 %1, 0
  %8 = load i32, ptr %6, align 8, !tbaa !28
  br i1 %.not.not6, label %.lr.ph, label %..loopexit_crit_edge

..loopexit_crit_edge:                             ; preds = %7
  %.pre9 = sub nsw i32 %8, %1
  br label %.loopexit

.lr.ph:                                           ; preds = %7
  %9 = getelementptr inbounds nuw i8, ptr %0, i64 48
  %10 = sext i32 %8 to i64
  br label %11

11:                                               ; preds = %.lr.ph, %11
  %indvars.iv = phi i64 [ %10, %.lr.ph ], [ %indvars.iv.next, %11 ]
  %indvars.iv.next = add nsw i64 %indvars.iv, -1
  %12 = load ptr, ptr %9, align 8, !tbaa !26
  %13 = getelementptr inbounds i8, ptr %12, i64 %indvars.iv.next
  store i8 0, ptr %13, align 1, !tbaa !26
  %14 = load i32, ptr %6, align 8, !tbaa !28
  %15 = sub nsw i32 %14, %1
  %16 = sext i32 %15 to i64
  %.not.not = icmp sgt i64 %indvars.iv.next, %16
  br i1 %.not.not, label %11, label %.loopexit, !llvm.loop !36

17:                                               ; preds = %2
  %18 = load i32, ptr %6, align 8, !tbaa !28
  %19 = sub nsw i32 %18, %1
  %20 = shl nsw i32 %19, 2
  %21 = zext nneg i32 %20 to i64
  %notmask = shl nsw i64 -1, %21
  %22 = xor i64 %notmask, -1
  %23 = getelementptr inbounds nuw i8, ptr %0, i64 48
  %24 = load i64, ptr %23, align 8, !tbaa !26
  %25 = and i64 %24, %22
  store i64 %25, ptr %23, align 8, !tbaa !26
  br label %.loopexit

.loopexit:                                        ; preds = %11, %..loopexit_crit_edge, %17
  %.pre-phi = phi i32 [ %.pre9, %..loopexit_crit_edge ], [ %19, %17 ], [ %15, %11 ]
  %26 = getelementptr inbounds nuw i8, ptr %0, i64 16
  store i32 %.pre-phi, ptr %26, align 8, !tbaa !28
  ret void
}